; ModuleID = '37/903.c'
source_filename = "37/903.c"
target datalayout = "e-m:e-p270:32:32-p271:32:32-p272:64:64-i64:64-f80:128-n8:16:32:64-S128"
target triple = "x86_64-pc-linux-gnu"

@.str = private unnamed_addr constant [3 x i8] c"%d\00", align 1
@.str.1 = private unnamed_addr constant [3 x i8] c"%s\00", align 1
@.str.2 = private unnamed_addr constant [4 x i8] c"%c\0A\00", align 1
@.str.3 = private unnamed_addr constant [4 x i8] c"no\0A\00", align 1

; Function Attrs: noinline nounwind uwtable
define dso_local i32 @main() #0 {
  %1 = alloca i32, align 4
  %2 = alloca [100 x [10000 x i8]], align 16
  %3 = alloca [26 x i8], align 16
  %4 = alloca i32, align 4
  %5 = alloca i32, align 4
  %6 = alloca i32, align 4
  %7 = alloca i32, align 4
  %8 = alloca i32, align 4
  %9 = alloca i32, align 4
  %10 = alloca [26 x i32], align 16
  store i32 0, i32* %1, align 4
  %11 = call i32 (i8*, ...) @__isoc99_scanf(i8* getelementptr inbounds ([3 x i8], [3 x i8]* @.str, i64 0, i64 0), i32* %4)
  store i32 0, i32* %5, align 4
  br label %12

12:                                               ; preds = %22, %0
  %13 = load i32, i32* %5, align 4
  %14 = load i32, i32* %4, align 4
  %15 = icmp slt i32 %13, %14
  br i1 %15, label %16, label %25

16:                                               ; preds = %12
  %17 = load i32, i32* %5, align 4
  %18 = sext i32 %17 to i64
  %19 = getelementptr inbounds [100 x [10000 x i8]], [100 x [10000 x i8]]* %2, i64 0, i64 %18
  %20 = getelementptr inbounds [10000 x i8], [10000 x i8]* %19, i64 0, i64 0
  %21 = call i32 (i8*, ...) @__isoc99_scanf(i8* getelementptr inbounds ([3 x i8], [3 x i8]* @.str.1, i64 0, i64 0), i8* %20)
  br label %22

22:                                               ; preds = %16
  %23 = load i32, i32* %5, align 4
  %24 = add nsw i32 %23, 1
  store i32 %24, i32* %5, align 4
  br label %12

25:                                               ; preds = %12
  store i32 0, i32* %5, align 4
  br label %26

26:                                               ; preds = %110, %25
  %27 = load i32, i32* %5, align 4
  %28 = load i32, i32* %4, align 4
  %29 = icmp slt i32 %27, %28
  br i1 %29, label %30, label %113

30:                                               ; preds = %26
  store i32 0, i32* %7, align 4
  store i32 0, i32* %6, align 4
  br label %31

31:                                               ; preds = %38, %30
  %32 = load i32, i32* %6, align 4
  %33 = icmp slt i32 %32, 26
  br i1 %33, label %34, label %41

34:                                               ; preds = %31
  %35 = load i32, i32* %6, align 4
  %36 = sext i32 %35 to i64
  %37 = getelementptr inbounds [26 x i32], [26 x i32]* %10, i64 0, i64 %36
  store i32 0, i32* %37, align 4
  br label %38

38:                                               ; preds = %34
  %39 = load i32, i32* %6, align 4
  %40 = add nsw i32 %39, 1
  store i32 %40, i32* %6, align 4
  br label %31

41:                                               ; preds = %31
  %42 = load i32, i32* %5, align 4
  %43 = sext i32 %42 to i64
  %44 = getelementptr inbounds [100 x [10000 x i8]], [100 x [10000 x i8]]* %2, i64 0, i64 %43
  %45 = getelementptr inbounds [10000 x i8], [10000 x i8]* %44, i64 0, i64 0
  %46 = call i64 @strlen(i8* %45) #3
  %47 = trunc i64 %46 to i32
  store i32 %47, i32* %8, align 4
  store i32 0, i32* %6, align 4
  br label %48

48:                                               ; preds = %67, %41
  %49 = load i32, i32* %6, align 4
  %50 = load i32, i32* %8, align 4
  %51 = icmp slt i32 %49, %50
  br i1 %51, label %52, label %70

52:                                               ; preds = %48
  %53 = load i32, i32* %5, align 4
  %54 = sext i32 %53 to i64
  %55 = getelementptr inbounds [100 x [10000 x i8]], [100 x [10000 x i8]]* %2, i64 0, i64 %54
  %56 = load i32, i32* %6, align 4
  %57 = sext i32 %56 to i64
  %58 = getelementptr inbounds [10000 x i8], [10000 x i8]* %55, i64 0, i64 %57
  %59 = load i8, i8* %58, align 1
  %60 = sext i8 %59 to i32
  %61 = sub nsw i32 %60, 97
  store i32 %61, i32* %9, align 4
  %62 = load i32, i32* %9, align 4
  %63 = sext i32 %62 to i64
  %64 = getelementptr inbounds [26 x i32], [26 x i32]* %10, i64 0, i64 %63
  %65 = load i32, i32* %64, align 4
  %66 = add nsw i32 %65, 1
  store i32 %66, i32* %64, align 4
  br label %67

67:                                               ; preds = %52
  %68 = load i32, i32* %6, align 4
  %69 = add nsw i32 %68, 1
  store i32 %69, i32* %6, align 4
  br label %48

70:                                               ; preds = %48
  store i32 0, i32* %6, align 4
  br label %71

71:                                               ; preds = %101, %70
  %72 = load i32, i32* %6, align 4
  %73 = load i32, i32* %8, align 4
  %74 = icmp slt i32 %72, %73
  br i1 %74, label %75, label %104

75:                                               ; preds = %71
  %76 = load i32, i32* %5, align 4
  %77 = sext i32 %76 to i64
  %78 = getelementptr inbounds [100 x [10000 x i8]], [100 x [10000 x i8]]* %2, i64 0, i64 %77
  %79 = load i32, i32* %6, align 4
  %80 = sext i32 %79 to i64
  %81 = getelementptr inbounds [10000 x i8], [10000 x i8]* %78, i64 0, i64 %80
  %82 = load i8, i8* %81, align 1
  %83 = sext i8 %82 to i32
  %84 = sub nsw i32 %83, 97
  store i32 %84, i32* %9, align 4
  %85 = load i32, i32* %9, align 4
  %86 = sext i32 %85 to i64
  %87 = getelementptr inbounds [26 x i32], [26 x i32]* %10, i64 0, i64 %86
  %88 = load i32, i32* %87, align 4
  %89 = icmp eq i32 %88, 1
  br i1 %89, label %90, label %100

90:                                               ; preds = %75
  %91 = load i32, i32* %5, align 4
  %92 = sext i32 %91 to i64
  %93 = getelementptr inbounds [100 x [10000 x i8]], [100 x [10000 x i8]]* %2, i64 0, i64 %92
  %94 = load i32, i32* %6, align 4
  %95 = sext i32 %94 to i64
  %96 = getelementptr inbounds [10000 x i8], [10000 x i8]* %93, i64 0, i64 %95
  %97 = load i8, i8* %96, align 1
  %98 = sext i8 %97 to i32
  %99 = call i32 (i8*, ...) @printf(i8* getelementptr inbounds ([4 x i8], [4 x i8]* @.str.2, i64 0, i64 0), i32 %98)
  store i32 1, i32* %7, align 4
  br label %104

100:                                              ; preds = %75
  br label %101

101:                                              ; preds = %100
  %102 = load i32, i32* %6, align 4
  %103 = add nsw i32 %102, 1
  store i32 %103, i32* %6, align 4
  br label %71

104:                                              ; preds = %90, %71
  %105 = load i32, i32* %7, align 4
  %106 = icmp eq i32 %105, 0
  br i1 %106, label %107, label %109

107:                                              ; preds = %104
  %108 = call i32 (i8*, ...) @printf(i8* getelementptr inbounds ([4 x i8], [4 x i8]* @.str.3, i64 0, i64 0))
  br label %109

109:                                              ; preds = %107, %104
  br label %110

110:                                              ; preds = %109
  %111 = load i32, i32* %5, align 4
  %112 = add nsw i32 %111, 1
  store i32 %112, i32* %5, align 4
  br label %26

113:                                              ; preds = %26
  ret i32 0
}

declare dso_local i32 @__isoc99_scanf(i8*, ...) #1

; Function Attrs: nounwind readonly
declare dso_local i64 @strlen(i8*) #2

declare dso_local i32 @printf(i8*, ...) #1


!llvm.module.flags = !{!0}
!llvm.ident = !{!1}

!0 = !{i32 1, !"wchar_size", i32 4}
!1 = !{!"clang version 10.0.0-4ubuntu1 "}
