; ModuleID = 'source-C-CXX/36/903.c'
source_filename = "source-C-CXX/36/903.c"
target datalayout = "e-m:e-p270:32:32-p271:32:32-p272:64:64-i64:64-f80:128-n8:16:32:64-S128"
target triple = "x86_64-pc-linux-gnu"

@.str = private unnamed_addr constant [3 x i8] c"%d\00", align 1
@.str.1 = private unnamed_addr constant [3 x i8] c"%s\00", align 1
@.str.2 = private unnamed_addr constant [4 x i8] c"%c\0A\00", align 1
@str = private unnamed_addr constant [3 x i8] c"no\00", align 1

; Function Attrs: nofree nounwind sspstrong uwtable
define dso_local i32 @main() local_unnamed_addr #0 {
  %1 = alloca [100 x [10000 x i8]], align 16
  %2 = alloca i32, align 4
  %3 = alloca [26 x i32], align 16
  %4 = bitcast [26 x i32]* %3 to i8*
  %5 = getelementptr inbounds [100 x [10000 x i8]], [100 x [10000 x i8]]* %1, i64 0, i64 0, i64 0
  call void @llvm.lifetime.start.p0i8(i64 1000000, i8* nonnull %5) #6
  %6 = bitcast i32* %2 to i8*
  call void @llvm.lifetime.start.p0i8(i64 4, i8* nonnull %6) #6
  call void @llvm.lifetime.start.p0i8(i64 104, i8* nonnull %4) #6
  %7 = call i32 (i8*, ...) @__isoc99_scanf(i8* getelementptr inbounds ([3 x i8], [3 x i8]* @.str, i64 0, i64 0), i32* nonnull %2)
  %8 = load i32, i32* %2, align 4, !tbaa !5
  %9 = icmp sgt i32 %8, 0
  br i1 %9, label %12, label %90

10:                                               ; preds = %12
  %11 = icmp sgt i32 %17, 0
  br i1 %11, label %20, label %90

12:                                               ; preds = %0, %12
  %13 = phi i64 [ %16, %12 ], [ 0, %0 ]
  %14 = getelementptr inbounds [100 x [10000 x i8]], [100 x [10000 x i8]]* %1, i64 0, i64 %13, i64 0
  %15 = call i32 (i8*, ...) @__isoc99_scanf(i8* getelementptr inbounds ([3 x i8], [3 x i8]* @.str.1, i64 0, i64 0), i8* nonnull %14)
  %16 = add nuw nsw i64 %13, 1
  %17 = load i32, i32* %2, align 4, !tbaa !5
  %18 = sext i32 %17 to i64
  %19 = icmp slt i64 %16, %18
  br i1 %19, label %12, label %10, !llvm.loop !9

20:                                               ; preds = %10, %85
  %21 = phi i64 [ %86, %85 ], [ 0, %10 ]
  call void @llvm.memset.p0i8.i64(i8* noundef nonnull align 16 dereferenceable(104) %4, i8 0, i64 104, i1 false)
  %22 = getelementptr inbounds [100 x [10000 x i8]], [100 x [10000 x i8]]* %1, i64 0, i64 %21, i64 0
  %23 = call i64 @strlen(i8* noundef nonnull %22) #7
  %24 = trunc i64 %23 to i32
  %25 = icmp sgt i32 %24, 0
  br i1 %25, label %26, label %83

26:                                               ; preds = %20
  %27 = shl i64 %23, 32
  %28 = and i64 %23, 1
  %29 = icmp eq i64 %27, 4294967296
  br i1 %29, label %33, label %30

30:                                               ; preds = %26
  %31 = ashr exact i64 %27, 32
  %32 = sub nsw i64 %31, %28
  br label %47

33:                                               ; preds = %47, %26
  %34 = phi i64 [ 0, %26 ], [ %65, %47 ]
  %35 = icmp eq i64 %28, 0
  br i1 %35, label %44, label %36

36:                                               ; preds = %33
  %37 = getelementptr inbounds [100 x [10000 x i8]], [100 x [10000 x i8]]* %1, i64 0, i64 %21, i64 %34
  %38 = load i8, i8* %37, align 1, !tbaa !11
  %39 = sext i8 %38 to i64
  %40 = add nsw i64 %39, -97
  %41 = getelementptr inbounds [26 x i32], [26 x i32]* %3, i64 0, i64 %40
  %42 = load i32, i32* %41, align 4, !tbaa !5
  %43 = add nsw i32 %42, 1
  store i32 %43, i32* %41, align 4, !tbaa !5
  br label %44

44:                                               ; preds = %33, %36
  br i1 %25, label %45, label %83

45:                                               ; preds = %44
  %46 = and i64 %23, 4294967295
  br label %70

47:                                               ; preds = %47, %30
  %48 = phi i64 [ 0, %30 ], [ %65, %47 ]
  %49 = phi i64 [ %32, %30 ], [ %66, %47 ]
  %50 = getelementptr inbounds [100 x [10000 x i8]], [100 x [10000 x i8]]* %1, i64 0, i64 %21, i64 %48
  %51 = load i8, i8* %50, align 2, !tbaa !11
  %52 = sext i8 %51 to i64
  %53 = add nsw i64 %52, -97
  %54 = getelementptr inbounds [26 x i32], [26 x i32]* %3, i64 0, i64 %53
  %55 = load i32, i32* %54, align 4, !tbaa !5
  %56 = add nsw i32 %55, 1
  store i32 %56, i32* %54, align 4, !tbaa !5
  %57 = or i64 %48, 1
  %58 = getelementptr inbounds [100 x [10000 x i8]], [100 x [10000 x i8]]* %1, i64 0, i64 %21, i64 %57
  %59 = load i8, i8* %58, align 1, !tbaa !11
  %60 = sext i8 %59 to i64
  %61 = add nsw i64 %60, -97
  %62 = getelementptr inbounds [26 x i32], [26 x i32]* %3, i64 0, i64 %61
  %63 = load i32, i32* %62, align 4, !tbaa !5
  %64 = add nsw i32 %63, 1
  store i32 %64, i32* %62, align 4, !tbaa !5
  %65 = add nuw nsw i64 %48, 2
  %66 = add i64 %49, -2
  %67 = icmp eq i64 %66, 0
  br i1 %67, label %33, label %47, !llvm.loop !12

68:                                               ; preds = %70
  %69 = icmp eq i64 %79, %46
  br i1 %69, label %83, label %70, !llvm.loop !13

70:                                               ; preds = %45, %68
  %71 = phi i64 [ 0, %45 ], [ %79, %68 ]
  %72 = getelementptr inbounds [100 x [10000 x i8]], [100 x [10000 x i8]]* %1, i64 0, i64 %21, i64 %71
  %73 = load i8, i8* %72, align 1, !tbaa !11
  %74 = sext i8 %73 to i64
  %75 = add nsw i64 %74, -97
  %76 = getelementptr inbounds [26 x i32], [26 x i32]* %3, i64 0, i64 %75
  %77 = load i32, i32* %76, align 4, !tbaa !5
  %78 = icmp eq i32 %77, 1
  %79 = add nuw nsw i64 %71, 1
  br i1 %78, label %80, label %68

80:                                               ; preds = %70
  %81 = sext i8 %73 to i32
  %82 = call i32 (i8*, ...) @printf(i8* nonnull dereferenceable(1) getelementptr inbounds ([4 x i8], [4 x i8]* @.str.2, i64 0, i64 0), i32 %81)
  br label %85

83:                                               ; preds = %68, %20, %44
  %84 = call i32 @puts(i8* nonnull dereferenceable(1) getelementptr inbounds ([3 x i8], [3 x i8]* @str, i64 0, i64 0))
  br label %85

85:                                               ; preds = %80, %83
  %86 = add nuw nsw i64 %21, 1
  %87 = load i32, i32* %2, align 4, !tbaa !5
  %88 = sext i32 %87 to i64
  %89 = icmp slt i64 %86, %88
  br i1 %89, label %20, label %90, !llvm.loop !14

90:                                               ; preds = %85, %0, %10
  call void @llvm.lifetime.end.p0i8(i64 104, i8* nonnull %4) #6
  call void @llvm.lifetime.end.p0i8(i64 4, i8* nonnull %6) #6
  call void @llvm.lifetime.end.p0i8(i64 1000000, i8* nonnull %5) #6
  ret i32 0
}

; Function Attrs: argmemonly mustprogress nofree nosync nounwind willreturn
declare void @llvm.lifetime.start.p0i8(i64 immarg, i8* nocapture) #1

; Function Attrs: nofree nounwind
declare noundef i32 @__isoc99_scanf(i8* nocapture noundef readonly, ...) local_unnamed_addr #2

; Function Attrs: argmemonly mustprogress nofree nounwind readonly willreturn
declare i64 @strlen(i8* nocapture) local_unnamed_addr #3

; Function Attrs: nofree nounwind
declare noundef i32 @printf(i8* nocapture noundef readonly, ...) local_unnamed_addr #2

; Function Attrs: argmemonly mustprogress nofree nosync nounwind willreturn
declare void @llvm.lifetime.end.p0i8(i64 immarg, i8* nocapture) #1

; Function Attrs: nofree nounwind
declare noundef i32 @puts(i8* nocapture noundef readonly) local_unnamed_addr #4

; Function Attrs: argmemonly nofree nounwind willreturn writeonly
declare void @llvm.memset.p0i8.i64(i8* nocapture writeonly, i8, i64, i1 immarg) #5


!llvm.module.flags = !{!0, !1, !2, !3}
!llvm.ident = !{!4}

!0 = !{i32 1, !"wchar_size", i32 4}
!1 = !{i32 7, !"PIC Level", i32 2}
!2 = !{i32 7, !"PIE Level", i32 2}
!3 = !{i32 7, !"uwtable", i32 1}
!4 = !{!"clang version 13.0.0"}
!5 = !{!6, !6, i64 0}
!6 = !{!"int", !7, i64 0}
!7 = !{!"omnipotent char", !8, i64 0}
!8 = !{!"Simple C/C++ TBAA"}
!9 = distinct !{!9, !10}
!10 = !{!"llvm.loop.mustprogress"}
!11 = !{!7, !7, i64 0}
!12 = distinct !{!12, !10}
!13 = distinct !{!13, !10}
!14 = distinct !{!14, !10}
